; Function Attrs: mustprogress ssp uwtable
define hidden void @_ZN6open3d1t2io21pybind_io_definitionsERN8pybind117module_E(ptr noundef nonnull readonly align 8 captures(none) dereferenceable(8) %0) local_unnamed_addr #5 personality ptr @__gxx_personality_v0 {
  %2 = alloca %"class.pybind11::module_", align 8
  %3 = alloca %"class.pybind11::detail::accessor", align 8
  call void @llvm.lifetime.start.p0(i64 8, ptr nonnull %2) #28
  call void @llvm.lifetime.start.p0(i64 32, ptr nonnull %3) #28
  tail call void @llvm.experimental.noalias.scope.decl(metadata !132)
  %.sroa.0.0.copyload.i = load ptr, ptr %0, align 8, !noalias !132
  %4 = getelementptr inbounds nuw i8, ptr %3, i64 8
  store ptr %.sroa.0.0.copyload.i, ptr %4, align 8, !alias.scope !132
  %5 = getelementptr inbounds nuw i8, ptr %3, i64 16
  store ptr @.str, ptr %5, align 8, !tbaa !127, !alias.scope !132
  %6 = getelementptr inbounds nuw i8, ptr %3, i64 24
  store ptr null, ptr %6, align 8, !tbaa !112, !alias.scope !132
  invoke void @_ZN8pybind117module_C2INS_6detail17accessor_policies8str_attrEEERKNS2_8accessorIT_EE(ptr noundef nonnull align 8 dereferenceable(8) %2, ptr noundef nonnull align 8 dereferenceable(32) %3)
          to label %7 unwind label %32

7:                                                ; preds = %1
  %8 = load ptr, ptr %6, align 8, !tbaa !112
  %.not.i.i.i.i = icmp eq ptr %8, null
  br i1 %.not.i.i.i.i, label %_ZN8pybind116detail8accessorINS0_17accessor_policies8str_attrEED2Ev.exit, label %9

9:                                                ; preds = %7
  %10 = load i64, ptr %8, align 8, !tbaa !111
  %11 = and i64 %10, 2147483648
  %.not2.i.i.i.i = icmp eq i64 %11, 0
  br i1 %.not2.i.i.i.i, label %12, label %_ZN8pybind116detail8accessorINS0_17accessor_policies8str_attrEED2Ev.exit

12:                                               ; preds = %9
  %13 = add nsw i64 %10, -1
  store i64 %13, ptr %8, align 8, !tbaa !111
  %14 = icmp eq i64 %13, 0
  br i1 %14, label %15, label %_ZN8pybind116detail8accessorINS0_17accessor_policies8str_attrEED2Ev.exit

15:                                               ; preds = %12
  invoke void @_Py_Dealloc(ptr noundef nonnull %8)
          to label %_ZN8pybind116detail8accessorINS0_17accessor_policies8str_attrEED2Ev.exit unwind label %16

16:                                               ; preds = %15
  %17 = landingpad { ptr, i32 }
          catch ptr null
  %18 = extractvalue { ptr, i32 } %17, 0
  call void @__clang_call_terminate(ptr %18) #29
  unreachable

_ZN8pybind116detail8accessorINS0_17accessor_policies8str_attrEED2Ev.exit: ; preds = %7, %9, %12, %15
  call void @llvm.lifetime.end.p0(i64 32, ptr nonnull %3) #28
  invoke void @_ZN6open3d1t2io27pybind_class_io_definitionsERN8pybind117module_E(ptr noundef nonnull align 8 dereferenceable(8) %2)
          to label %19 unwind label %34

19:                                               ; preds = %_ZN8pybind116detail8accessorINS0_17accessor_policies8str_attrEED2Ev.exit
  invoke void @_ZN6open3d1t2io25pybind_sensor_definitionsERN8pybind117module_E(ptr noundef nonnull align 8 dereferenceable(8) %2)
          to label %20 unwind label %34

20:                                               ; preds = %19
  %21 = load ptr, ptr %2, align 8, !tbaa !112
  %.not.i.i.i = icmp eq ptr %21, null
  br i1 %.not.i.i.i, label %_ZN8pybind116objectD2Ev.exit, label %22

22:                                               ; preds = %20
  %23 = load i64, ptr %21, align 8, !tbaa !111
  %24 = and i64 %23, 2147483648
  %.not2.i.i.i = icmp eq i64 %24, 0
  br i1 %.not2.i.i.i, label %25, label %_ZN8pybind116objectD2Ev.exit

25:                                               ; preds = %22
  %26 = add nsw i64 %23, -1
  store i64 %26, ptr %21, align 8, !tbaa !111
  %27 = icmp eq i64 %26, 0
  br i1 %27, label %28, label %_ZN8pybind116objectD2Ev.exit

28:                                               ; preds = %25
  invoke void @_Py_Dealloc(ptr noundef nonnull %21)
          to label %_ZN8pybind116objectD2Ev.exit unwind label %29

29:                                               ; preds = %28
  %30 = landingpad { ptr, i32 }
          catch ptr null
  %31 = extractvalue { ptr, i32 } %30, 0
  call void @__clang_call_terminate(ptr %31) #29
  unreachable

_ZN8pybind116objectD2Ev.exit:                     ; preds = %20, %22, %25, %28
  call void @llvm.lifetime.end.p0(i64 8, ptr nonnull %2) #28
  ret void

32:                                               ; preds = %1
  %33 = landingpad { ptr, i32 }
          cleanup
  call void @_ZN8pybind116detail8accessorINS0_17accessor_policies8str_attrEED2Ev(ptr noundef nonnull align 8 dereferenceable(32) %3) #28
  call void @llvm.lifetime.end.p0(i64 32, ptr nonnull %3) #28
  br label %36

34:                                               ; preds = %19, %_ZN8pybind116detail8accessorINS0_17accessor_policies8str_attrEED2Ev.exit
  %35 = landingpad { ptr, i32 }
          cleanup
  call void @_ZN8pybind116objectD2Ev(ptr noundef nonnull align 8 dereferenceable(8) %2) #28
  br label %36

36:                                               ; preds = %34, %32
  %.pn = phi { ptr, i32 } [ %35, %34 ], [ %33, %32 ]
  call void @llvm.lifetime.end.p0(i64 8, ptr nonnull %2) #28
  resume { ptr, i32 } %.pn
}